(lp0
(dp1
Vdate
p2
V\u5341\u6708\u4e00\u53f7
p3
sVevent
p4
V\u53bb\u65c5\u6e38
p5
sVtime
p6
V500min
p7
sa(dp8
Vdate
p9
V2018-06-09 13:00
p10
sVevent
p11
V\u6e38\u6cf3
p12
sVtime
p13
V60\u5206\u949f
p14
sa.