(lp0
(dp1
Vdate
p2
V2018-06-08 18:40:18
p3
sVevent
p4
Vstudy
p5
sVtime
p6
V40
p7
sa(dp8
Vdate
p9
V2018-01-13 00:43:35
p10
sVevent
p11
Vtest
p12
sVtime
p13
V15
p14
sa(dp15
Vdate
p16
V2018-02-22 00:44:19
p17
sVevent
p18
Vtest
p19
sVtime
p20
V62
p21
sa(dp22
Vdate
p23
V2019-03-26 00:44:19
p24
sVevent
p25
Vtest
p26
sVtime
p27
V66
p28
sa(dp29
Vdate
p30
V0018-04-21 00:44:19
p31
sVevent
p32
Vtest
p33
sVtime
p34
V42
p35
sa(dp36
Vdate
p37
V2013-05-13 03:22:11
p38
sVevent
p39
Vtest
p40
sVtime
p41
V35
p42
sa(dp43
Vdate
p44
V2017-08-21 00:44:19
p45
sVevent
p46
Vtest
p47
sVtime
p48
V45
p49
sa(dp50
Vdate
p51
V2018-09-29 00:44:19
p52
sVevent
p53
Vtest
p54
sVtime
p55
V12
p56
sa(dp57
Vdate
p58
V2018-10-01 00:44:19
p59
sVevent
p60
Vtest
p61
sVtime
p62
V12
p63
sa(dp64
Vdate
p65
V2016-11-11 00:44:19
p66
sVevent
p67
Vtest
p68
sVtime
p69
V133
p70
sa(dp71
Vdate
p72
V2020-12-12 00:44:19
p73
sVevent
p74
Vsss
p75
sVtime
p76
V54
p77
sa(dp78
Vdate
p79
V2015-07-31 00:44:19
p80
sVevent
p81
Vwej
p82
sVtime
p83
V42
p84
sa(dp85
Vdate
p86
V2018-08-12 03:44:05
p87
sVevent
p88
V\u751f\u65e5
p89
sVtime
p90
V30
p91
sa.